; ModuleID = 'source-C-CXX/42/1221.cpp'
source_filename = "source-C-CXX/42/1221.cpp"
target datalayout = "e-m:e-p270:32:32-p271:32:32-p272:64:64-i64:64-f80:128-n8:16:32:64-S128"
target triple = "x86_64-pc-linux-gnu"

%"class.std::ios_base::Init" = type { i8 }
%"class.std::basic_istream" = type { i32 (...)**, i64, %"class.std::basic_ios" }
%"class.std::basic_ios" = type { %"class.std::ios_base", %"class.std::basic_ostream"*, i8, i8, %"class.std::basic_streambuf"*, %"class.std::ctype"*, %"class.std::num_put"*, %"class.std::num_get"* }
%"class.std::ios_base" = type { i32 (...)**, i64, i64, i32, i32, i32, %"struct.std::ios_base::_Callback_list"*, %"struct.std::ios_base::_Words", [8 x %"struct.std::ios_base::_Words"], i32, %"struct.std::ios_base::_Words"*, %"class.std::locale" }
%"struct.std::ios_base::_Callback_list" = type { %"struct.std::ios_base::_Callback_list"*, void (i32, %"class.std::ios_base"*, i32)*, i32, i32 }
%"struct.std::ios_base::_Words" = type { i8*, i64 }
%"class.std::locale" = type { %"class.std::locale::_Impl"* }
%"class.std::locale::_Impl" = type { i32, %"class.std::locale::facet"**, i64, %"class.std::locale::facet"**, i8** }
%"class.std::locale::facet" = type <{ i32 (...)**, i32, [4 x i8] }>
%"class.std::basic_ostream" = type { i32 (...)**, %"class.std::basic_ios" }
%"class.std::basic_streambuf" = type { i32 (...)**, i8*, i8*, i8*, i8*, i8*, i8*, %"class.std::locale" }
%"class.std::ctype" = type <{ %"class.std::locale::facet.base", [4 x i8], %struct.__locale_struct*, i8, [7 x i8], i32*, i32*, i16*, i8, [256 x i8], [256 x i8], i8, [6 x i8] }>
%"class.std::locale::facet.base" = type <{ i32 (...)**, i32 }>
%struct.__locale_struct = type { [13 x %struct.__locale_data*], i16*, i32*, i32*, [13 x i8*] }
%struct.__locale_data = type opaque
%"class.std::num_put" = type { %"class.std::locale::facet.base", [4 x i8] }
%"class.std::num_get" = type { %"class.std::locale::facet.base", [4 x i8] }

@_ZStL8__ioinit = internal global %"class.std::ios_base::Init" zeroinitializer, align 1
@__dso_handle = external hidden global i8
@_ZSt3cin = external global %"class.std::basic_istream", align 8
@_ZSt4cout = external global %"class.std::basic_ostream", align 8
@.str = private unnamed_addr constant [2 x i8] c" \00", align 1
@llvm.global_ctors = appending global [1 x { i32, void ()*, i8* }] [{ i32, void ()*, i8* } { i32 65535, void ()* @_GLOBAL__sub_I_1221.cpp, i8* null }]

declare void @_ZNSt8ios_base4InitC1Ev(%"class.std::ios_base::Init"* nonnull align 1 dereferenceable(1)) unnamed_addr #0

; Function Attrs: nounwind
declare void @_ZNSt8ios_base4InitD1Ev(%"class.std::ios_base::Init"* nonnull align 1 dereferenceable(1)) unnamed_addr #1

; Function Attrs: nofree nounwind
declare i32 @__cxa_atexit(void (i8*)*, i8*, i8*) local_unnamed_addr #2

; Function Attrs: mustprogress norecurse sspstrong uwtable
define dso_local i32 @main() local_unnamed_addr #3 {
  %1 = alloca i32, align 4
  %2 = bitcast i32* %1 to i8*
  call void @llvm.lifetime.start.p0i8(i64 4, i8* nonnull %2) #8
  %3 = call nonnull align 8 dereferenceable(16) %"class.std::basic_istream"* @_ZNSirsERi(%"class.std::basic_istream"* nonnull align 8 dereferenceable(16) @_ZSt3cin, i32* nonnull align 4 dereferenceable(4) %1)
  %4 = load i32, i32* %1, align 4, !tbaa !5
  %5 = icmp slt i32 %4, 6
  br i1 %5, label %6, label %7

6:                                                ; preds = %75, %0
  call void @llvm.lifetime.end.p0i8(i64 4, i8* nonnull %2) #8
  ret i32 0

7:                                                ; preds = %0, %75
  %8 = phi i32 [ %76, %75 ], [ 3, %0 ]
  %9 = sitofp i32 %8 to double
  %10 = call double @sqrt(double %9) #8
  %11 = fptosi double %10 to i32
  %12 = icmp slt i32 %11, 1
  br i1 %12, label %22, label %13

13:                                               ; preds = %7
  %14 = add i32 %11, 1
  br label %18

15:                                               ; preds = %18
  %16 = add nuw i32 %19, 1
  %17 = icmp eq i32 %19, %14
  br i1 %17, label %22, label %18, !llvm.loop !9

18:                                               ; preds = %13, %15
  %19 = phi i32 [ %16, %15 ], [ 2, %13 ]
  %20 = urem i32 %8, %19
  %21 = icmp eq i32 %20, 0
  br i1 %21, label %75, label %15

22:                                               ; preds = %15, %7
  %23 = load i32, i32* %1, align 4, !tbaa !5
  %24 = sub nsw i32 %23, %8
  %25 = sitofp i32 %24 to double
  %26 = call double @sqrt(double %25) #8
  %27 = fptosi double %26 to i32
  %28 = load i32, i32* %1, align 4
  %29 = sub nsw i32 %28, %8
  %30 = icmp slt i32 %27, 1
  br i1 %30, label %40, label %31

31:                                               ; preds = %22
  %32 = add i32 %27, 1
  br label %36

33:                                               ; preds = %36
  %34 = add nuw i32 %37, 1
  %35 = icmp eq i32 %37, %32
  br i1 %35, label %40, label %36, !llvm.loop !11

36:                                               ; preds = %31, %33
  %37 = phi i32 [ %34, %33 ], [ 2, %31 ]
  %38 = srem i32 %29, %37
  %39 = icmp eq i32 %38, 0
  br i1 %39, label %75, label %33

40:                                               ; preds = %33, %22
  %41 = call nonnull align 8 dereferenceable(8) %"class.std::basic_ostream"* @_ZNSolsEi(%"class.std::basic_ostream"* nonnull align 8 dereferenceable(8) @_ZSt4cout, i32 %8)
  %42 = call nonnull align 8 dereferenceable(8) %"class.std::basic_ostream"* @_ZSt16__ostream_insertIcSt11char_traitsIcEERSt13basic_ostreamIT_T0_ES6_PKS3_l(%"class.std::basic_ostream"* nonnull align 8 dereferenceable(8) %41, i8* nonnull getelementptr inbounds ([2 x i8], [2 x i8]* @.str, i64 0, i64 0), i64 1)
  %43 = load i32, i32* %1, align 4, !tbaa !5
  %44 = sub nsw i32 %43, %8
  %45 = call nonnull align 8 dereferenceable(8) %"class.std::basic_ostream"* @_ZNSolsEi(%"class.std::basic_ostream"* nonnull align 8 dereferenceable(8) %41, i32 %44)
  %46 = bitcast %"class.std::basic_ostream"* %45 to i8**
  %47 = load i8*, i8** %46, align 8, !tbaa !12
  %48 = getelementptr i8, i8* %47, i64 -24
  %49 = bitcast i8* %48 to i64*
  %50 = load i64, i64* %49, align 8
  %51 = bitcast %"class.std::basic_ostream"* %45 to i8*
  %52 = add nsw i64 %50, 240
  %53 = getelementptr inbounds i8, i8* %51, i64 %52
  %54 = bitcast i8* %53 to %"class.std::ctype"**
  %55 = load %"class.std::ctype"*, %"class.std::ctype"** %54, align 8, !tbaa !14
  %56 = icmp eq %"class.std::ctype"* %55, null
  br i1 %56, label %57, label %58

57:                                               ; preds = %40
  call void @_ZSt16__throw_bad_castv() #9
  unreachable

58:                                               ; preds = %40
  %59 = getelementptr inbounds %"class.std::ctype", %"class.std::ctype"* %55, i64 0, i32 8
  %60 = load i8, i8* %59, align 8, !tbaa !18
  %61 = icmp eq i8 %60, 0
  br i1 %61, label %65, label %62

62:                                               ; preds = %58
  %63 = getelementptr inbounds %"class.std::ctype", %"class.std::ctype"* %55, i64 0, i32 9, i64 10
  %64 = load i8, i8* %63, align 1, !tbaa !20
  br label %71

65:                                               ; preds = %58
  call void @_ZNKSt5ctypeIcE13_M_widen_initEv(%"class.std::ctype"* nonnull align 8 dereferenceable(570) %55)
  %66 = bitcast %"class.std::ctype"* %55 to i8 (%"class.std::ctype"*, i8)***
  %67 = load i8 (%"class.std::ctype"*, i8)**, i8 (%"class.std::ctype"*, i8)*** %66, align 8, !tbaa !12
  %68 = getelementptr inbounds i8 (%"class.std::ctype"*, i8)*, i8 (%"class.std::ctype"*, i8)** %67, i64 6
  %69 = load i8 (%"class.std::ctype"*, i8)*, i8 (%"class.std::ctype"*, i8)** %68, align 8
  %70 = call signext i8 %69(%"class.std::ctype"* nonnull align 8 dereferenceable(570) %55, i8 signext 10)
  br label %71

71:                                               ; preds = %62, %65
  %72 = phi i8 [ %64, %62 ], [ %70, %65 ]
  %73 = call nonnull align 8 dereferenceable(8) %"class.std::basic_ostream"* @_ZNSo3putEc(%"class.std::basic_ostream"* nonnull align 8 dereferenceable(8) %45, i8 signext %72)
  %74 = call nonnull align 8 dereferenceable(8) %"class.std::basic_ostream"* @_ZNSo5flushEv(%"class.std::basic_ostream"* nonnull align 8 dereferenceable(8) %73)
  br label %75

75:                                               ; preds = %18, %36, %71
  %76 = add nuw nsw i32 %8, 2
  %77 = load i32, i32* %1, align 4, !tbaa !5
  %78 = sdiv i32 %77, 2
  %79 = icmp sgt i32 %76, %78
  br i1 %79, label %6, label %7, !llvm.loop !21
}

; Function Attrs: argmemonly mustprogress nofree nosync nounwind willreturn
declare void @llvm.lifetime.start.p0i8(i64 immarg, i8* nocapture) #4

declare nonnull align 8 dereferenceable(16) %"class.std::basic_istream"* @_ZNSirsERi(%"class.std::basic_istream"* nonnull align 8 dereferenceable(16), i32* nonnull align 4 dereferenceable(4)) local_unnamed_addr #0

; Function Attrs: mustprogress nofree nounwind willreturn
declare double @sqrt(double) local_unnamed_addr #5

declare nonnull align 8 dereferenceable(8) %"class.std::basic_ostream"* @_ZNSolsEi(%"class.std::basic_ostream"* nonnull align 8 dereferenceable(8), i32) local_unnamed_addr #0

; Function Attrs: argmemonly mustprogress nofree nosync nounwind willreturn
declare void @llvm.lifetime.end.p0i8(i64 immarg, i8* nocapture) #4

declare nonnull align 8 dereferenceable(8) %"class.std::basic_ostream"* @_ZSt16__ostream_insertIcSt11char_traitsIcEERSt13basic_ostreamIT_T0_ES6_PKS3_l(%"class.std::basic_ostream"* nonnull align 8 dereferenceable(8), i8*, i64) local_unnamed_addr #0

declare nonnull align 8 dereferenceable(8) %"class.std::basic_ostream"* @_ZNSo3putEc(%"class.std::basic_ostream"* nonnull align 8 dereferenceable(8), i8 signext) local_unnamed_addr #0

declare nonnull align 8 dereferenceable(8) %"class.std::basic_ostream"* @_ZNSo5flushEv(%"class.std::basic_ostream"* nonnull align 8 dereferenceable(8)) local_unnamed_addr #0

; Function Attrs: noreturn
declare void @_ZSt16__throw_bad_castv() local_unnamed_addr #6

declare void @_ZNKSt5ctypeIcE13_M_widen_initEv(%"class.std::ctype"* nonnull align 8 dereferenceable(570)) local_unnamed_addr #0

; Function Attrs: sspstrong uwtable
define internal void @_GLOBAL__sub_I_1221.cpp() #7 section ".text.startup" {
  tail call void @_ZNSt8ios_base4InitC1Ev(%"class.std::ios_base::Init"* nonnull align 1 dereferenceable(1) @_ZStL8__ioinit)
  %1 = tail call i32 @__cxa_atexit(void (i8*)* bitcast (void (%"class.std::ios_base::Init"*)* @_ZNSt8ios_base4InitD1Ev to void (i8*)*), i8* getelementptr inbounds (%"class.std::ios_base::Init", %"class.std::ios_base::Init"* @_ZStL8__ioinit, i64 0, i32 0), i8* nonnull @__dso_handle) #8
  ret void
}


!llvm.module.flags = !{!0, !1, !2, !3}
!llvm.ident = !{!4}

!0 = !{i32 1, !"wchar_size", i32 4}
!1 = !{i32 7, !"PIC Level", i32 2}
!2 = !{i32 7, !"PIE Level", i32 2}
!3 = !{i32 7, !"uwtable", i32 1}
!4 = !{!"clang version 13.0.0"}
!5 = !{!6, !6, i64 0}
!6 = !{!"int", !7, i64 0}
!7 = !{!"omnipotent char", !8, i64 0}
!8 = !{!"Simple C++ TBAA"}
!9 = distinct !{!9, !10}
!10 = !{!"llvm.loop.mustprogress"}
!11 = distinct !{!11, !10}
!12 = !{!13, !13, i64 0}
!13 = !{!"vtable pointer", !8, i64 0}
!14 = !{!15, !16, i64 240}
!15 = !{!"_ZTSSt9basic_iosIcSt11char_traitsIcEE", !16, i64 216, !7, i64 224, !17, i64 225, !16, i64 232, !16, i64 240, !16, i64 248, !16, i64 256}
!16 = !{!"any pointer", !7, i64 0}
!17 = !{!"bool", !7, i64 0}
!18 = !{!19, !7, i64 56}
!19 = !{!"_ZTSSt5ctypeIcE", !16, i64 16, !17, i64 24, !16, i64 32, !16, i64 40, !16, i64 48, !7, i64 56, !7, i64 57, !7, i64 313, !7, i64 569}
!20 = !{!7, !7, i64 0}
!21 = distinct !{!21, !10}
